                                      1 ;--------------------------------------------------------
                                      2 ; File Created by SDCC : free open source ISO C Compiler
                                      3 ; Version 4.5.0 #15242 (Linux)
                                      4 ;--------------------------------------------------------
                                      5 	.module fsave
                                      6 	
                                      7 	.optsdcc -mz80 sdcccall(1)
                                      8 ;--------------------------------------------------------
                                      9 ; Public variables in this module
                                     10 ;--------------------------------------------------------
                                     11 	.globl _fsave
                                     12 	.globl _memcpy
                                     13 	.globl _fparse
                                     14 	.globl _malloc
                                     15 	.globl _free
                                     16 	.globl _calloc
                                     17 	.globl _bdosret
                                     18 	.globl _bdos
                                     19 ;--------------------------------------------------------
                                     20 ; special function registers
                                     21 ;--------------------------------------------------------
                                     22 ;--------------------------------------------------------
                                     23 ; ram data
                                     24 ;--------------------------------------------------------
                                     25 	.area _DATA
                                     26 ;--------------------------------------------------------
                                     27 ; ram data
                                     28 ;--------------------------------------------------------
                                     29 	.area _INITIALIZED
                                     30 ;--------------------------------------------------------
                                     31 ; absolute external ram data
                                     32 ;--------------------------------------------------------
                                     33 	.area _DABS (ABS)
                                     34 ;--------------------------------------------------------
                                     35 ; global & static initialisations
                                     36 ;--------------------------------------------------------
                                     37 	.area _HOME
                                     38 	.area _GSINIT
                                     39 	.area _GSFINAL
                                     40 	.area _GSINIT
                                     41 ;--------------------------------------------------------
                                     42 ; Home
                                     43 ;--------------------------------------------------------
                                     44 	.area _HOME
                                     45 	.area _HOME
                                     46 ;--------------------------------------------------------
                                     47 ; code
                                     48 ;--------------------------------------------------------
                                     49 	.area _CODE
                         00000000    50 	G$fsave$0$0	= .
                                     51 	.globl	G$fsave$0$0
                         00000000    52 	C$fsave.c$28$0_0$16	= .
                                     53 	.globl	C$fsave.c$28$0_0$16
                                     54 ;/workspace/idp-udev/src/ulibc/fsave.c:28: int fsave(char *path, void* buf, unsigned int flen) {
                                     55 ;	---------------------------------
                                     56 ; Function fsave
                                     57 ; ---------------------------------
    00000000                         58 _fsave::
    00000000 DD E5            [15]   59 	push	ix
    00000002 DD 21 00 00      [14]   60 	ld	ix,#0
    00000006 DD 39            [15]   61 	add	ix,sp
    00000008 FD 21 E9 FF      [14]   62 	ld	iy, #-23
    0000000C FD 39            [15]   63 	add	iy, sp
    0000000E FD F9            [10]   64 	ld	sp, iy
    00000010 4D               [ 4]   65 	ld	c, l
    00000011 44               [ 4]   66 	ld	b, h
    00000012 DD 73 FA         [19]   67 	ld	-6 (ix), e
    00000015 DD 72 FB         [19]   68 	ld	-5 (ix), d
                         00000018    69 	C$fsave.c$31$2_0$16	= .
                                     70 	.globl	C$fsave.c$31$2_0$16
                                     71 ;/workspace/idp-udev/src/ulibc/fsave.c:31: int retval = 0;
    00000018 AF               [ 4]   72 	xor	a, a
    00000019 DD 77 EE         [19]   73 	ld	-18 (ix), a
    0000001C DD 77 EF         [19]   74 	ld	-17 (ix), a
                         0000001F    75 	C$fsave.c$34$1_0$16	= .
                                     76 	.globl	C$fsave.c$34$1_0$16
                                     77 ;/workspace/idp-udev/src/ulibc/fsave.c:34: fcb_t *fcb=calloc(1,sizeof(fcb_t));
    0000001F C5               [11]   78 	push	bc
    00000020 11 24 00         [10]   79 	ld	de, #0x0024
    00000023 21 01 00         [10]   80 	ld	hl, #0x0001
    00000026 CDr00r00         [17]   81 	call	_calloc
    00000029 C1               [10]   82 	pop	bc
    0000002A DD 73 FE         [19]   83 	ld	-2 (ix), e
    0000002D DD 72 FF         [19]   84 	ld	-1 (ix), d
                         00000030    85 	C$fsave.c$38$1_0$16	= .
                                     86 	.globl	C$fsave.c$38$1_0$16
                                     87 ;/workspace/idp-udev/src/ulibc/fsave.c:38: if (fparse(path, fcb, &area)) {
    00000030 21 00 00         [10]   88 	ld	hl, #0
    00000033 39               [11]   89 	add	hl, sp
    00000034 E5               [11]   90 	push	hl
    00000035 DD 5E FE         [19]   91 	ld	e, -2 (ix)
    00000038 DD 56 FF         [19]   92 	ld	d, -1 (ix)
    0000003B 69               [ 4]   93 	ld	l, c
    0000003C 60               [ 4]   94 	ld	h, b
    0000003D CDr00r00         [17]   95 	call	_fparse
    00000040 DD 73 FC         [19]   96 	ld	-4 (ix), e
    00000043 DD 72 FD         [19]   97 	ld	-3 (ix), d
                         00000046    98 	C$fsave.c$39$1_3$16	= .
                                     99 	.globl	C$fsave.c$39$1_3$16
                                    100 ;/workspace/idp-udev/src/ulibc/fsave.c:39: free(fcb); 
    00000046 DD 7E FE         [19]  101 	ld	a, -2 (ix)
    00000049 DD 77 F0         [19]  102 	ld	-16 (ix), a
    0000004C DD 7E FF         [19]  103 	ld	a, -1 (ix)
    0000004F DD 77 F1         [19]  104 	ld	-15 (ix), a
                         00000052   105 	C$fsave.c$38$1_0$16	= .
                                    106 	.globl	C$fsave.c$38$1_0$16
                                    107 ;/workspace/idp-udev/src/ulibc/fsave.c:38: if (fparse(path, fcb, &area)) {
    00000052 DD 7E FD         [19]  108 	ld	a, -3 (ix)
    00000055 DD B6 FC         [19]  109 	or	a, -4 (ix)
    00000058 28 0F            [12]  110 	jr	Z, 00102$
                         0000005A   111 	C$fsave.c$39$2_0$17	= .
                                    112 	.globl	C$fsave.c$39$2_0$17
                                    113 ;/workspace/idp-udev/src/ulibc/fsave.c:39: free(fcb); 
    0000005A DD 6E F0         [19]  114 	ld	l, -16 (ix)
    0000005D DD 66 F1         [19]  115 	ld	h, -15 (ix)
    00000060 CDr00r00         [17]  116 	call	_free
                         00000063   117 	C$fsave.c$40$2_0$17	= .
                                    118 	.globl	C$fsave.c$40$2_0$17
                                    119 ;/workspace/idp-udev/src/ulibc/fsave.c:40: return 0;
    00000063 11 00 00         [10]  120 	ld	de, #0x0000
    00000066 C3rC2r01         [10]  121 	jp	00119$
    00000069                        122 00102$:
                         00000069   123 	C$fsave.c$44$1_1$18	= .
                                    124 	.globl	C$fsave.c$44$1_1$18
                                    125 ;/workspace/idp-udev/src/ulibc/fsave.c:44: unsigned char prev_area = bdos(F_USERNUM, 0xff);
    00000069 11 FF 00         [10]  126 	ld	de, #0x00ff
    0000006C 3E 20            [ 7]  127 	ld	a, #0x20
    0000006E CDr00r00         [17]  128 	call	_bdos
    00000071 DD 77 F2         [19]  129 	ld	-14 (ix), a
                         00000074   130 	C$fsave.c$45$1_1$18	= .
                                    131 	.globl	C$fsave.c$45$1_1$18
                                    132 ;/workspace/idp-udev/src/ulibc/fsave.c:45: if (area!=prev_area) { /* only if different */
    00000074 DD 7E E9         [19]  133 	ld	a, -23 (ix)
    00000077 DD 96 F2         [19]  134 	sub	a, -14 (ix)
    0000007A 28 14            [12]  135 	jr	Z, 00104$
                         0000007C   136 	C$fsave.c$46$2_1$19	= .
                                    137 	.globl	C$fsave.c$46$2_1$19
                                    138 ;/workspace/idp-udev/src/ulibc/fsave.c:46: bdos(F_USERNUM, area);
    0000007C DD 7E E9         [19]  139 	ld	a, -23 (ix)
    0000007F DD 77 FC         [19]  140 	ld	-4 (ix), a
    00000082 DD 36 FD 00      [19]  141 	ld	-3 (ix), #0x00
    00000086 DD 5E FC         [19]  142 	ld	e, -4 (ix)
    00000089 16 00            [ 7]  143 	ld	d, #0x00
    0000008B 3E 20            [ 7]  144 	ld	a, #0x20
    0000008D CDr00r00         [17]  145 	call	_bdos
    00000090                        146 00104$:
                         00000090   147 	C$fsave.c$50$1_2$20	= .
                                    148 	.globl	C$fsave.c$50$1_2$20
                                    149 ;/workspace/idp-udev/src/ulibc/fsave.c:50: void *dma=malloc(DMA_SIZE);
    00000090 21 80 00         [10]  150 	ld	hl, #0x0080
    00000093 CDr00r00         [17]  151 	call	_malloc
    00000096 DD 73 F3         [19]  152 	ld	-13 (ix), e
    00000099 DD 72 F4         [19]  153 	ld	-12 (ix), d
                         0000009C   154 	C$fsave.c$54$1_2$20	= .
                                    155 	.globl	C$fsave.c$54$1_2$20
                                    156 ;/workspace/idp-udev/src/ulibc/fsave.c:54: unsigned char file_opened=0, blk_allocated=0;
    0000009C DD 36 F5 00      [19]  157 	ld	-11 (ix), #0x00
                         000000A0   158 	C$fsave.c$57$1_2$20	= .
                                    159 	.globl	C$fsave.c$57$1_2$20
                                    160 ;/workspace/idp-udev/src/ulibc/fsave.c:57: bdosret(F_OPEN,(unsigned int)fcb,&result);
    000000A0 DD 7E FE         [19]  161 	ld	a, -2 (ix)
    000000A3 DD 77 F6         [19]  162 	ld	-10 (ix), a
    000000A6 DD 7E FF         [19]  163 	ld	a, -1 (ix)
    000000A9 DD 77 F7         [19]  164 	ld	-9 (ix), a
    000000AC 21 01 00         [10]  165 	ld	hl, #1
    000000AF 39               [11]  166 	add	hl, sp
    000000B0 E5               [11]  167 	push	hl
    000000B1 DD 5E F6         [19]  168 	ld	e, -10 (ix)
    000000B4 DD 56 F7         [19]  169 	ld	d, -9 (ix)
    000000B7 3E 0F            [ 7]  170 	ld	a, #0x0f
    000000B9 CDr00r00         [17]  171 	call	_bdosret
                         000000BC   172 	C$fsave.c$58$1_2$20	= .
                                    173 	.globl	C$fsave.c$58$1_2$20
                                    174 ;/workspace/idp-udev/src/ulibc/fsave.c:58: if (result.reta==BDOS_FAILURE) {
    000000BC DD 7E EA         [19]  175 	ld	a, -22 (ix)
    000000BF 3C               [ 4]  176 	inc	a
    000000C0 20 17            [12]  177 	jr	NZ, 00108$
                         000000C2   178 	C$fsave.c$60$2_2$21	= .
                                    179 	.globl	C$fsave.c$60$2_2$21
                                    180 ;/workspace/idp-udev/src/ulibc/fsave.c:60: bdosret(F_MAKE, (unsigned int)fcb, &result);
    000000C2 21 01 00         [10]  181 	ld	hl, #1
    000000C5 39               [11]  182 	add	hl, sp
    000000C6 E5               [11]  183 	push	hl
    000000C7 DD 5E F6         [19]  184 	ld	e, -10 (ix)
    000000CA DD 56 F7         [19]  185 	ld	d, -9 (ix)
    000000CD 3E 16            [ 7]  186 	ld	a, #0x16
    000000CF CDr00r00         [17]  187 	call	_bdosret
                         000000D2   188 	C$fsave.c$61$2_2$21	= .
                                    189 	.globl	C$fsave.c$61$2_2$21
                                    190 ;/workspace/idp-udev/src/ulibc/fsave.c:61: if (result.reta == BDOS_FAILURE) goto fsave_done;
    000000D2 DD 7E EA         [19]  191 	ld	a, -22 (ix)
    000000D5 3C               [ 4]  192 	inc	a
    000000D6 CAr79r01         [10]  193 	jp	Z, 00114$
    000000D9                        194 00108$:
                         000000D9   195 	C$fsave.c$63$1_2$20	= .
                                    196 	.globl	C$fsave.c$63$1_2$20
                                    197 ;/workspace/idp-udev/src/ulibc/fsave.c:63: file_opened=1; /* file is open or created... */
    000000D9 DD 36 F5 01      [19]  198 	ld	-11 (ix), #0x01
                         000000DD   199 	C$fsave.c$67$1_2$20	= .
                                    200 	.globl	C$fsave.c$67$1_2$20
                                    201 ;/workspace/idp-udev/src/ulibc/fsave.c:67: bdos(F_DMAOFF,(unsigned int)dma);
    000000DD DD 5E F3         [19]  202 	ld	e, -13 (ix)
    000000E0 DD 56 F4         [19]  203 	ld	d, -12 (ix)
    000000E3 3E 1A            [ 7]  204 	ld	a, #0x1a
    000000E5 CDr00r00         [17]  205 	call	_bdos
                         000000E8   206 	C$fsave.c$70$2_2$22	= .
                                    207 	.globl	C$fsave.c$70$2_2$22
                                    208 ;/workspace/idp-udev/src/ulibc/fsave.c:70: unsigned int w_len = 0;
    000000E8 AF               [ 4]  209 	xor	a, a
    000000E9 DD 77 FC         [19]  210 	ld	-4 (ix), a
    000000EC DD 77 FD         [19]  211 	ld	-3 (ix), a
                         000000EF   212 	C$fsave.c$71$2_2$22	= .
                                    213 	.globl	C$fsave.c$71$2_2$22
                                    214 ;/workspace/idp-udev/src/ulibc/fsave.c:71: unsigned char *p_buf = buf;
    000000EF DD 7E FA         [19]  215 	ld	a, -6 (ix)
    000000F2 DD 77 FE         [19]  216 	ld	-2 (ix), a
    000000F5 DD 7E FB         [19]  217 	ld	a, -5 (ix)
    000000F8 DD 77 FF         [19]  218 	ld	-1 (ix), a
                         000000FB   219 	C$fsave.c$72$1_3$22	= .
                                    220 	.globl	C$fsave.c$72$1_3$22
                                    221 ;/workspace/idp-udev/src/ulibc/fsave.c:72: while (w_len < flen) {
    000000FB                        222 00111$:
    000000FB DD 7E FC         [19]  223 	ld	a, -4 (ix)
    000000FE DD 96 04         [19]  224 	sub	a, 4 (ix)
    00000101 DD 7E FD         [19]  225 	ld	a, -3 (ix)
    00000104 DD 9E 05         [19]  226 	sbc	a, 5 (ix)
    00000107 30 68            [12]  227 	jr	NC, 00113$
                         00000109   228 	C$fsave.c$74$2_3$23	= .
                                    229 	.globl	C$fsave.c$74$2_3$23
                                    230 ;/workspace/idp-udev/src/ulibc/fsave.c:74: unsigned int sz = (flen - w_len) > DMA_SIZE ? DMA_SIZE : (flen - w_len);
    00000109 DD 7E 04         [19]  231 	ld	a, 4 (ix)
    0000010C DD 96 FC         [19]  232 	sub	a, -4 (ix)
    0000010F 4F               [ 4]  233 	ld	c, a
    00000110 DD 7E 05         [19]  234 	ld	a, 5 (ix)
    00000113 DD 9E FD         [19]  235 	sbc	a, -3 (ix)
    00000116 47               [ 4]  236 	ld	b, a
    00000117 3E 80            [ 7]  237 	ld	a, #0x80
    00000119 B9               [ 4]  238 	cp	a, c
    0000011A 3E 00            [ 7]  239 	ld	a, #0x00
    0000011C 98               [ 4]  240 	sbc	a, b
    0000011D 30 03            [12]  241 	jr	NC, 00121$
    0000011F 01 80 00         [10]  242 	ld	bc, #0x0080
    00000122                        243 00121$:
    00000122 DD 71 F8         [19]  244 	ld	-8 (ix), c
    00000125 DD 70 F9         [19]  245 	ld	-7 (ix), b
                         00000128   246 	C$fsave.c$75$2_3$23	= .
                                    247 	.globl	C$fsave.c$75$2_3$23
                                    248 ;/workspace/idp-udev/src/ulibc/fsave.c:75: memcpy(dma, p_buf, sz);
    00000128 DD 5E FE         [19]  249 	ld	e, -2 (ix)
    0000012B DD 56 FF         [19]  250 	ld	d, -1 (ix)
    0000012E DD 6E F8         [19]  251 	ld	l, -8 (ix)
    00000131 26 00            [ 7]  252 	ld	h, #0x00
    00000133 E5               [11]  253 	push	hl
    00000134 DD 6E F3         [19]  254 	ld	l, -13 (ix)
    00000137 DD 66 F4         [19]  255 	ld	h, -12 (ix)
    0000013A CDr00r00         [17]  256 	call	_memcpy
                         0000013D   257 	C$fsave.c$77$2_3$23	= .
                                    258 	.globl	C$fsave.c$77$2_3$23
                                    259 ;/workspace/idp-udev/src/ulibc/fsave.c:77: bdosret(F_WRITE, (unsigned int)fcb, &result);
    0000013D 21 01 00         [10]  260 	ld	hl, #1
    00000140 39               [11]  261 	add	hl, sp
    00000141 E5               [11]  262 	push	hl
    00000142 DD 5E F6         [19]  263 	ld	e, -10 (ix)
    00000145 DD 56 F7         [19]  264 	ld	d, -9 (ix)
    00000148 3E 15            [ 7]  265 	ld	a, #0x15
    0000014A CDr00r00         [17]  266 	call	_bdosret
                         0000014D   267 	C$fsave.c$78$2_3$23	= .
                                    268 	.globl	C$fsave.c$78$2_3$23
                                    269 ;/workspace/idp-udev/src/ulibc/fsave.c:78: if (result.reta != 0) goto fsave_done;
    0000014D DD 7E EA         [19]  270 	ld	a, -22 (ix)
    00000150 B7               [ 4]  271 	or	a, a
    00000151 20 26            [12]  272 	jr	NZ, 00114$
                         00000153   273 	C$fsave.c$79$2_3$23	= .
                                    274 	.globl	C$fsave.c$79$2_3$23
                                    275 ;/workspace/idp-udev/src/ulibc/fsave.c:79: p_buf += sz;
    00000153 DD 7E FE         [19]  276 	ld	a, -2 (ix)
    00000156 DD 86 F8         [19]  277 	add	a, -8 (ix)
    00000159 DD 77 FE         [19]  278 	ld	-2 (ix), a
    0000015C 30 03            [12]  279 	jr	NC, 00190$
    0000015E DD 34 FF         [23]  280 	inc	-1 (ix)
    00000161                        281 00190$:
                         00000161   282 	C$fsave.c$80$2_3$23	= .
                                    283 	.globl	C$fsave.c$80$2_3$23
                                    284 ;/workspace/idp-udev/src/ulibc/fsave.c:80: w_len += sz;
    00000161 DD 7E FC         [19]  285 	ld	a, -4 (ix)
    00000164 DD 86 F8         [19]  286 	add	a, -8 (ix)
    00000167 DD 77 FC         [19]  287 	ld	-4 (ix), a
    0000016A 30 8F            [12]  288 	jr	NC, 00111$
    0000016C DD 34 FD         [23]  289 	inc	-3 (ix)
    0000016F 18 8A            [12]  290 	jr	00111$
    00000171                        291 00113$:
                         00000171   292 	C$fsave.c$84$1_3$22	= .
                                    293 	.globl	C$fsave.c$84$1_3$22
                                    294 ;/workspace/idp-udev/src/ulibc/fsave.c:84: retval=1;
    00000171 DD 36 EE 01      [19]  295 	ld	-18 (ix), #0x01
    00000175 DD 36 EF 00      [19]  296 	ld	-17 (ix), #0
                         00000179   297 	C$fsave.c$86$1_3$22	= .
                                    298 	.globl	C$fsave.c$86$1_3$22
                                    299 ;/workspace/idp-udev/src/ulibc/fsave.c:86: fsave_done:
    00000179                        300 00114$:
                         00000179   301 	C$fsave.c$89$1_3$22	= .
                                    302 	.globl	C$fsave.c$89$1_3$22
                                    303 ;/workspace/idp-udev/src/ulibc/fsave.c:89: if (file_opened) 
    00000179 DD 7E F5         [19]  304 	ld	a, -11 (ix)
    0000017C B7               [ 4]  305 	or	a, a
    0000017D 28 10            [12]  306 	jr	Z, 00116$
                         0000017F   307 	C$fsave.c$90$1_3$22	= .
                                    308 	.globl	C$fsave.c$90$1_3$22
                                    309 ;/workspace/idp-udev/src/ulibc/fsave.c:90: bdosret(F_CLOSE,(unsigned int)fcb,&result);
    0000017F 21 01 00         [10]  310 	ld	hl, #1
    00000182 39               [11]  311 	add	hl, sp
    00000183 E5               [11]  312 	push	hl
    00000184 DD 5E F6         [19]  313 	ld	e, -10 (ix)
    00000187 DD 56 F7         [19]  314 	ld	d, -9 (ix)
    0000018A 3E 10            [ 7]  315 	ld	a, #0x10
    0000018C CDr00r00         [17]  316 	call	_bdosret
    0000018F                        317 00116$:
                         0000018F   318 	C$fsave.c$93$1_3$22	= .
                                    319 	.globl	C$fsave.c$93$1_3$22
                                    320 ;/workspace/idp-udev/src/ulibc/fsave.c:93: if (area!=prev_area) bdos(F_USERNUM,prev_area);
    0000018F DD 7E E9         [19]  321 	ld	a, -23 (ix)
    00000192 DD 96 F2         [19]  322 	sub	a, -14 (ix)
    00000195 28 14            [12]  323 	jr	Z, 00118$
    00000197 DD 7E F2         [19]  324 	ld	a, -14 (ix)
    0000019A DD 77 FE         [19]  325 	ld	-2 (ix), a
    0000019D DD 36 FF 00      [19]  326 	ld	-1 (ix), #0x00
    000001A1 DD 5E FE         [19]  327 	ld	e, -2 (ix)
    000001A4 16 00            [ 7]  328 	ld	d, #0x00
    000001A6 3E 20            [ 7]  329 	ld	a, #0x20
    000001A8 CDr00r00         [17]  330 	call	_bdos
    000001AB                        331 00118$:
                         000001AB   332 	C$fsave.c$96$1_3$22	= .
                                    333 	.globl	C$fsave.c$96$1_3$22
                                    334 ;/workspace/idp-udev/src/ulibc/fsave.c:96: free(fcb);
    000001AB DD 6E F0         [19]  335 	ld	l, -16 (ix)
    000001AE DD 66 F1         [19]  336 	ld	h, -15 (ix)
    000001B1 CDr00r00         [17]  337 	call	_free
                         000001B4   338 	C$fsave.c$99$1_3$22	= .
                                    339 	.globl	C$fsave.c$99$1_3$22
                                    340 ;/workspace/idp-udev/src/ulibc/fsave.c:99: free(dma);
    000001B4 DD 6E F3         [19]  341 	ld	l, -13 (ix)
    000001B7 DD 66 F4         [19]  342 	ld	h, -12 (ix)
    000001BA CDr00r00         [17]  343 	call	_free
                         000001BD   344 	C$fsave.c$102$1_3$22	= .
                                    345 	.globl	C$fsave.c$102$1_3$22
                                    346 ;/workspace/idp-udev/src/ulibc/fsave.c:102: return  retval;
    000001BD DD 5E EE         [19]  347 	ld	e, -18 (ix)
    000001C0 16 00            [ 7]  348 	ld	d, #0x00
    000001C2                        349 00119$:
                         000001C2   350 	C$fsave.c$103$1_3$16	= .
                                    351 	.globl	C$fsave.c$103$1_3$16
                                    352 ;/workspace/idp-udev/src/ulibc/fsave.c:103: }
    000001C2 DD F9            [10]  353 	ld	sp, ix
    000001C4 DD E1            [14]  354 	pop	ix
    000001C6 E1               [10]  355 	pop	hl
    000001C7 F1               [10]  356 	pop	af
    000001C8 E9               [ 4]  357 	jp	(hl)
                                    358 	.area _CODE
                                    359 	.area _INITIALIZER
                                    360 	.area _CABS (ABS)
