ASxxxx Assembler V02.00 + NoICE + SDCC mods  (Zilog Z80 / Hitachi HD64180 / ZX-Next / eZ80 / R800)                          Page 1
Hexadecimal [32-Bits]



                                      1         ;; gputglyph.s
                                      2         ;; 
                                      3         ;; draw a glyph
                                      4         ;;
                                      5         ;; MIT License (see: LICENSE)
                                      6         ;; copyright (c) 2022 tomaz stih
                                      7         ;;
                                      8         ;; 06.06.2022    tstih
                                      9         .module gputglyph
                                     10 
                                     11         .globl  _gputglyph
                                     12         .globl  gpg_raw
                                     13         .globl  gpgt_set_palette
                                     14 
                         FFFFFF80    15         .equ    ESCAPE,-128
                                     16 
                                     17         .area    _CODE
                                     18         ;; ---------------------------------------------
                                     19         ;; void gputglyph(void* glyph, coord x, coord y)
                                     20         ;; ---------------------------------------------
                                     21         ;; draws glyph at x,y without clipping!
                                     22         ;; recognizes standard glyphs from libgpx
    00000000                         23 _gputglyph:
                                     24         ;;  hl=void * (glyph) - already in HL
                                     25         ;;  hl'=x - from DE
                                     26         ;;  de'=y - from stack
    00000000 DD 21 00 00      [14]   27         ld      ix,#0
    00000004 DD 39            [15]   28         add     ix,sp
    00000006 D9               [ 4]   29         exx
    00000007 EB               [ 4]   30         ex      de,hl                   ; hl'=x (from DE parameter)
    00000008 DD 5E 00         [19]   31         ld      e,(ix)                  ; de'=y from stack
    0000000B DD 56 01         [19]   32         ld      d,1(ix)
    0000000E D9               [ 4]   33         exx
                                     34         ;; HL contains glyph pointer, alternate regs contain x,y
    0000000F                         35 gpg_raw:
                                     36         ;; now get number of bytes into bc
    0000000F 7E               [ 7]   37         ld      a,(hl)                  ; get sprite signature
    00000010 23               [ 6]   38         inc     hl                      ; next byte...
                                     39         ;; recognize glyph type
    00000011 47               [ 4]   40         ld      b,a                     ; store to b
    00000012 E6 E0            [ 7]   41         and     #0b11100000             ; only leave signature
    00000014 FE 40            [ 7]   42         cp      #0b01000000             ; test for lines glyph
    00000016 28 06            [12]   43         jr      z,gpg_lines
    00000018 FE 20            [ 7]   44         cp      #0b00100000             ; test for tiny glyph
    0000001A CA 9B 00         [10]   45         jp      z,gpg_tiny
                                     46         ;; if we're here, we failed to recognize the glyph!
    0000001D C9               [10]   47         ret
                                     48         ;; draw lines glyph
    0000001E                         49 gpg_lines:
    0000001E CD C9 00         [17]   50         call    gpgt_set_palette        ; get the pallete.
    00000021 78               [ 4]   51         ld      a,b                     ; restore a
    00000022 E6 0F            [ 7]   52         and     #0x0f                   ; a=msb
    00000024 47               [ 4]   53         ld      b,a                     ; b=msb
    00000025 23               [ 6]   54         inc     hl                      ; skip width
    00000026 23               [ 6]   55         inc     hl                      ; skip height
ASxxxx Assembler V02.00 + NoICE + SDCC mods  (Zilog Z80 / Hitachi HD64180 / ZX-Next / eZ80 / R800)                          Page 2
Hexadecimal [32-Bits]



    00000027 4E               [ 7]   56         ld      c,(hl)                  ; c=count LSB
    00000028 23               [ 6]   57         inc     hl                      ; hl=first line
                                     58         ;; loop through all points, BC=count
    00000029                         59 gpgl_loop:
    00000029 7E               [ 7]   60         ld      a,(hl)                  ; get byte
    0000002A 0B               [ 6]   61         dec     bc                      ; decrease count
    0000002B 23               [ 6]   62         inc     hl                      ; next byte
    0000002C FE 80            [ 7]   63         cp      #ESCAPE                 ; is escape sequence?
    0000002E 28 0E            [12]   64         jr      z,gpgl_escape
                                     65         ;; it's not an escape sequence
    00000030 C5               [11]   66         push    bc                      ; store counter
    00000031 4F               [ 4]   67         ld      c,a                     ; c=dx
    00000032 46               [ 7]   68         ld      b,(hl)                  ; b=dy
    00000033 CD 74 00         [17]   69         call    gpgl_drawline           ; set dx and dy
    00000036 C1               [10]   70         pop     bc                      ; restore counter
    00000037 0B               [ 6]   71         dec     bc                      ; we picked a value from bc
    00000038 23               [ 6]   72         inc     hl                      ; increase ptr.
    00000039 78               [ 4]   73         ld      a,b                     ; if
    0000003A B1               [ 4]   74         or      c
    0000003B 20 EC            [12]   75         jr      nz,gpgl_loop            ; then loop
    0000003D C9               [10]   76         ret
                                     77         ;; NOTE: 
                                     78         ;;      there is no bound check here, the glyph
                                     79         ;;      must be correct!!!
    0000003E                         80 gpgl_escape:
                                     81         ;; first check if we change the color?
    0000003E 7E               [ 7]   82         ld      a,(hl)                  ; command to a
    0000003F E6 02            [ 7]   83         and     #0b00000010             ; bit 1 = set color
    00000041 28 0B            [12]   84         jr      z,pgl_chk_eos           ; no color change
                                     85         ;; let's change color!
    00000043 7E               [ 7]   86         ld      a,(hl)
    00000044 E6 0C            [ 7]   87         and     #0b00001100             ; get the color
    00000046 CB 2F            [ 8]   88         sra     a                       ; color into a
    00000048 CB 2F            [ 8]   89         sra     a                       ; xxxxxxbb
    0000004A 0F               [ 4]   90         rrca                            ; bxxxxxxb
    0000004B CD ED 00         [17]   91         call    gpgt_handle_pen         ; set pen
                                     92         ;; check end of stroke?
    0000004E                         93 pgl_chk_eos:
    0000004E 7E               [ 7]   94         ld      a,(hl)                  ; command to a (again!)
    0000004F E6 01            [ 7]   95         and     #0b00000001             ; bit 0 = end of stroke
    00000051 28 04            [12]   96         jr      z,pgl_eos
                                     97         ;; we don't change the position...
                                     98         ;; ...next 2 parameters are relative.
                                     99         ;; so don't do anything!
    00000053 0B               [ 6]  100         dec     bc
    00000054 23               [ 6]  101         inc     hl
    00000055 18 D2            [12]  102         jr gpgl_loop
    00000057                        103 pgl_eos:
    00000057 0B               [ 6]  104         dec     bc                      ; skip over 0!
    00000058 23               [ 6]  105         inc     hl
    00000059 5E               [ 7]  106         ld      e,(hl)                  ; e=x
    0000005A 0B               [ 6]  107         dec     bc
    0000005B 23               [ 6]  108         inc     hl
    0000005C 56               [ 7]  109         ld      d,(hl)                  ; d=y
    0000005D 0B               [ 6]  110         dec     bc
ASxxxx Assembler V02.00 + NoICE + SDCC mods  (Zilog Z80 / Hitachi HD64180 / ZX-Next / eZ80 / R800)                          Page 3
Hexadecimal [32-Bits]



    0000005E 23               [ 6]  111         inc     hl
    0000005F D5               [11]  112         push    de                      ; store x,y
                                    113         ;; now get x and y and move there!
                                    114         ;; preserve hl and de
    00000060 D9               [ 4]  115         exx
    00000061 C1               [10]  116         pop     bc                      ; b=y, c=x
    00000062 E5               [11]  117         push    hl
    00000063 D5               [11]  118         push    de
    00000064 78               [ 4]  119         ld      a,b                     ; store y
    00000065 06 00            [ 7]  120         ld      b,#0                    ; only dx left in bc
    00000067 09               [11]  121         add     hl,bc                   ; add dx+x
    00000068 EB               [ 4]  122         ex      de,hl                   ; de=X, hl=y
    00000069 4F               [ 4]  123         ld      c,a                     ; bc=y
    0000006A 09               [11]  124         add     hl,bc                   ; hl=Y
    0000006B EB               [ 4]  125         ex      de,hl                   ; de and hl are set
    0000006C CD 00 00         [17]  126         call    gdp_set_xy              ; move to x,y
                                    127         ;; restore origin!
    0000006F D1               [10]  128         pop     de
    00000070 E1               [10]  129         pop     hl
    00000071 D9               [ 4]  130         exx
    00000072 18 B5            [12]  131         jr      gpgl_loop               ; and loop!
    00000074                        132 gpgl_drawline:
                                    133         ;; values are signed! b=dy, c=dx
                                    134         ;; need to create command and run it...
    00000074 16 11            [ 7]  135         ld      d,#0b00010001           ; basic command
    00000076 78               [ 4]  136         ld      a,b                     ; get dy
    00000077 B7               [ 4]  137         or      a                       ; test
    00000078 FA 81 00         [10]  138         jp      m,gpgl_negdy            ; dy is negative
    0000007B 28 07            [12]  139         jr      z,gpgl_dx
                                    140         ;; positive dy but reverse axix
    0000007D 16 15            [ 7]  141         ld      d,#0b00010101           ; command with signed dy!
    0000007F 18 03            [12]  142         jr      gpgl_dx
    00000081                        143 gpgl_negdy:
                                    144         ;; we have reverse y axis so negative is positive
    00000081 ED 44            [ 8]  145         neg                             ; abs. a
    00000083 47               [ 4]  146         ld      b,a                     ; b=abs(dy)
    00000084                        147 gpgl_dx:
    00000084 79               [ 4]  148         ld      a,c                     ; get dx
    00000085 B7               [ 4]  149         or      a
    00000086 FA 8D 00         [10]  150         jp      m,gpgl_negdx            ; dx is negative?
    00000089 1E 00            [ 7]  151         ld      e,#0                    ; OR value for command
    0000008B 18 05            [12]  152         jr      gpgl_draw
    0000008D                        153 gpgl_negdx:
    0000008D ED 44            [ 8]  154         neg                             ; dx is positive
    0000008F 4F               [ 4]  155         ld      c,a                     
    00000090 1E 02            [ 7]  156         ld      e,#0b00000010           ; OR value for command
                                    157         ;; b=dy,c=dx, d or e = cmd
    00000092                        158 gpgl_draw:
    00000092 CD 00 00         [17]  159         call    gdp_set_dxdy
                                    160         ;; command to a
    00000095 7A               [ 4]  161         ld      a,d
    00000096 B3               [ 4]  162         or      e
                                    163         ;; and call command
    00000097 CD 00 00         [17]  164         call    gdp_exec_cmd
    0000009A C9               [10]  165         ret
ASxxxx Assembler V02.00 + NoICE + SDCC mods  (Zilog Z80 / Hitachi HD64180 / ZX-Next / eZ80 / R800)                          Page 4
Hexadecimal [32-Bits]



                                    166         ;; draw tiny glyph
    0000009B                        167 gpg_tiny:
    0000009B CD C9 00         [17]  168         call    gpgt_set_palette        ; get the pallete.
    0000009E                        169 gpgt_moves:
                                    170         ;; extract no of moves
    0000009E 23               [ 6]  171         inc     hl                      ; skip width
    0000009F 23               [ 6]  172         inc     hl                      ; skip height
    000000A0 7E               [ 7]  173         ld      a,(hl)                  ; number of moves
    000000A1 B7               [ 4]  174         or      a                       ; test for zero
    000000A2 C8               [11]  175         ret     z                       ; no moves...
    000000A3 D6 02            [ 7]  176         sub     #2                      ; moves=moves-2
    000000A5 47               [ 4]  177         ld      b,a                     ; b=move counter
                                    178         ;; move to origin
    000000A6 23               [ 6]  179         inc     hl                      ; to origin
    000000A7 5E               [ 7]  180         ld      e,(hl)                  ; e=x
    000000A8 23               [ 6]  181         inc     hl
    000000A9 56               [ 7]  182         ld      d,(hl)                  ; d=y
    000000AA 23               [ 6]  183         inc     hl
    000000AB D5               [11]  184         push    de                      ; store x,y
                                    185         ;; now get x and y and move there!
                                    186         ;; preserve hl and de
    000000AC D9               [ 4]  187         exx
    000000AD C1               [10]  188         pop     bc                      ; b=y, c=x
    000000AE 78               [ 4]  189         ld      a,b                     ; store y
    000000AF 06 00            [ 7]  190         ld      b,#0                    ; only dx left in bc
    000000B1 09               [11]  191         add     hl,bc                   ; add dx+x
    000000B2 EB               [ 4]  192         ex      de,hl                   ; de=X, hl=y
    000000B3 4F               [ 4]  193         ld      c,a                     ; bc=y
    000000B4 09               [11]  194         add     hl,bc                   ; hl=Y
    000000B5 EB               [ 4]  195         ex      de,hl                   ; de and hl are set
    000000B6 CD 00 00         [17]  196         call    gdp_set_xy              ; move to x,y
    000000B9 D9               [ 4]  197         exx
                                    198         ;; and loop hl (pointing to data!)
    000000BA                        199 gpgt_loop:
    000000BA 7E               [ 7]  200         ld      a,(hl)                  ; get move
    000000BB CD ED 00         [17]  201         call    gpgt_handle_pen
    000000BE 23               [ 6]  202         inc     hl
    000000BF F6 81            [ 7]  203         or      #0b10000001             ; set both bits to 1
    000000C1 EE 04            [ 7]  204         xor     #0b00000100             ; negate y sign (rev.axis)
    000000C3 CD 00 00         [17]  205         call    gdp_exec_cmd            ; and draw!
    000000C6 10 F2            [13]  206         djnz    gpgt_loop
    000000C8 C9               [10]  207         ret
    000000C9                        208 gpgt_set_palette:
                                    209         ;; this sets the correct pallete for drawing
                                    210         ;; palette is mapping from currently set ink to 
                                    211         ;; ink inside tiny glyph
                                    212         ;; affects: a, de
    000000C9 AF               [ 4]  213         xor     a
    000000CA 32 07 01         [13]  214         ld      (gpgt_none_value),a
    000000CD E5               [11]  215         push    hl
    000000CE 3A 03 00         [13]  216         ld      a,(gdata+3)             ; get current pen
    000000D1 32 06 01         [13]  217         ld      (gpgt_stored_pen),a     ; and write to cache as init value
    000000D4 21 E5 00         [10]  218         ld      hl, #gpgt_palette       ; get gpgt_palette
    000000D7 16 00            [ 7]  219         ld      d,#0
    000000D9 87               [ 4]  220         add     a                       ; a=a*2
ASxxxx Assembler V02.00 + NoICE + SDCC mods  (Zilog Z80 / Hitachi HD64180 / ZX-Next / eZ80 / R800)                          Page 5
Hexadecimal [32-Bits]



    000000DA 5F               [ 4]  221         ld      e,a                     ; de=2*a
    000000DB 19               [11]  222         add     hl,de                   ; gl points to palette
    000000DC 11 08 01         [10]  223         ld      de,#gpgt_fore_value
    000000DF ED A0            [16]  224         ldi
    000000E1 ED A0            [16]  225         ldi                             ; copy  palette
    000000E3 E1               [10]  226         pop     hl
    000000E4 C9               [10]  227         ret
    000000E5                        228 gpgt_palette:
    000000E5 00 00                  229         .db     0, 0
    000000E7 01 02                  230         .db     1, 2
    000000E9 02 01                  231         .db     2, 1
    000000EB 01 02                  232         .db     1, 2
                                    233         ;; handle pen and color
                                    234         ;; inputs: a is the tiny command
                                    235         ;; affects: de
    000000ED                        236 gpgt_handle_pen:
    000000ED F5               [11]  237         push    af
                                    238         ;; get the pen
    000000EE 07               [ 4]  239         rlca                            ; get color to first 2 bits
    000000EF E6 03            [ 7]  240         and     #0b00000011             ; get color
                                    241         ;; if same as current color, don't do anything expensive
    000000F1 5F               [ 4]  242         ld      e,a
    000000F2 3A 03 00         [13]  243         ld      a,(gdata+3)
    000000F5 BB               [ 4]  244         cp      e
    000000F6 28 0C            [12]  245         jr      z, gpgtp_end
                                    246         ;; map to palette
    000000F8 E5               [11]  247         push    hl                      ; store hl
    000000F9 21 07 01         [10]  248         ld      hl,#gpgt_none_value     ; hl=assume
    000000FC 16 00            [ 7]  249         ld      d,#0                    ; de=a (index)
    000000FE 19               [11]  250         add     hl,de                   ; point to color
    000000FF 6E               [ 7]  251         ld      l,(hl)                  ; l=color
                                    252         ;; prepare args for the call!
    00000100 CD 00 00         [17]  253         call    gsc_raw
                                    254         ;; restore original hl
    00000103 E1               [10]  255         pop     hl
    00000104                        256 gpgtp_end:
    00000104 F1               [10]  257         pop     af
    00000105 C9               [10]  258         ret
                                    259 
                                    260         ;; place to store cached values
    00000106                        261 gpgt_stored_pen:
    00000106 00                     262         .db     0
    00000107                        263 gpgt_none_value:
    00000107 00                     264         .db     0
    00000108                        265 gpgt_fore_value:
    00000108 01                     266         .db     1
    00000109                        267 gpgt_back_value:
    00000109 02                     268         .db     2
